; Function Attrs: mustprogress nounwind uwtable
define hidden void @_ZN11MemBaseline34virtual_memory_sites_to_size_orderEv(ptr nocapture noundef nonnull align 8 dereferenceable(2676) %0) local_unnamed_addr #3 align 2 {
  %2 = alloca %class.SortedLinkedList.12, align 8
  %3 = getelementptr inbounds i8, ptr %0, i64 2668
  %4 = load i32, ptr %3, align 4
  %.not = icmp eq i32 %4, 1
  br i1 %.not, label %17, label %5

5:                                                ; preds = %1
  %6 = getelementptr inbounds i8, ptr %2, i64 8
  call void @llvm.memset.p0.i64(ptr noundef nonnull align 8 dereferenceable(16) %6, i8 0, i64 16, i1 false)
  store ptr getelementptr inbounds inrange(-16, 120) (i8, ptr @_ZTV16SortedLinkedListI27VirtualMemoryAllocationSiteXadL_Z27compare_virtual_memory_sizeRKS0_S2_EELN6AnyObj15allocation_typeE2EL8MEMFLAGS12ELN17AllocFailStrategy13AllocFailEnumE1EE, i64 16), ptr %2, align 8
  %7 = getelementptr inbounds i8, ptr %0, i64 2648
  %8 = load ptr, ptr %7, align 8
  %.not.i3.i = icmp eq ptr %8, null
  br i1 %.not.i3.i, label %_ZN16SortedLinkedListI27VirtualMemoryAllocationSiteXadL_Z27compare_virtual_memory_sizeRKS0_S2_EELN6AnyObj15allocation_typeE2EL8MEMFLAGS12ELN17AllocFailStrategy13AllocFailEnumE1EED2Ev.exit, label %.lr.ph.i

.lr.ph.i:                                         ; preds = %5, %.lr.ph.i
  %9 = phi ptr [ %15, %.lr.ph.i ], [ %8, %5 ]
  %10 = getelementptr inbounds i8, ptr %9, i64 64
  %11 = load ptr, ptr %10, align 8
  store ptr %11, ptr %7, align 8
  %12 = load ptr, ptr %2, align 8
  %13 = getelementptr inbounds i8, ptr %12, i64 32
  %14 = load ptr, ptr %13, align 8
  call void %14(ptr noundef nonnull align 8 dereferenceable(24) %2, ptr noundef nonnull %9) #14
  %15 = load ptr, ptr %7, align 8
  %.not.i.i = icmp eq ptr %15, null
  br i1 %.not.i.i, label %_ZN16SortedLinkedListI27VirtualMemoryAllocationSiteXadL_Z27compare_virtual_memory_sizeRKS0_S2_EELN6AnyObj15allocation_typeE2EL8MEMFLAGS12ELN17AllocFailStrategy13AllocFailEnumE1EED2Ev.exit.loopexit, label %.lr.ph.i, !llvm.loop !18

_ZN16SortedLinkedListI27VirtualMemoryAllocationSiteXadL_Z27compare_virtual_memory_sizeRKS0_S2_EELN6AnyObj15allocation_typeE2EL8MEMFLAGS12ELN17AllocFailStrategy13AllocFailEnumE1EED2Ev.exit.loopexit: ; preds = %.lr.ph.i
  %.pre = load ptr, ptr %6, align 8
  br label %_ZN16SortedLinkedListI27VirtualMemoryAllocationSiteXadL_Z27compare_virtual_memory_sizeRKS0_S2_EELN6AnyObj15allocation_typeE2EL8MEMFLAGS12ELN17AllocFailStrategy13AllocFailEnumE1EED2Ev.exit

_ZN16SortedLinkedListI27VirtualMemoryAllocationSiteXadL_Z27compare_virtual_memory_sizeRKS0_S2_EELN6AnyObj15allocation_typeE2EL8MEMFLAGS12ELN17AllocFailStrategy13AllocFailEnumE1EED2Ev.exit: ; preds = %_ZN16SortedLinkedListI27VirtualMemoryAllocationSiteXadL_Z27compare_virtual_memory_sizeRKS0_S2_EELN6AnyObj15allocation_typeE2EL8MEMFLAGS12ELN17AllocFailStrategy13AllocFailEnumE1EED2Ev.exit.loopexit, %5
  %16 = phi ptr [ %.pre, %_ZN16SortedLinkedListI27VirtualMemoryAllocationSiteXadL_Z27compare_virtual_memory_sizeRKS0_S2_EELN6AnyObj15allocation_typeE2EL8MEMFLAGS12ELN17AllocFailStrategy13AllocFailEnumE1EED2Ev.exit.loopexit ], [ null, %5 ]
  store ptr %16, ptr %7, align 8
  store i32 1, ptr %3, align 4
  br label %17

17:                                               ; preds = %_ZN16SortedLinkedListI27VirtualMemoryAllocationSiteXadL_Z27compare_virtual_memory_sizeRKS0_S2_EELN6AnyObj15allocation_typeE2EL8MEMFLAGS12ELN17AllocFailStrategy13AllocFailEnumE1EED2Ev.exit, %1
  ret void
}